target datalayout = "e-m:e-p270:32:32-p271:32:32-p272:64:64-i64:64-i128:128-f80:128-n8:16:32:64-S128"
target triple = "x86_64-pc-linux-gnu"

%struct.SizeClassConfig = type { [40 x i32], [1025 x i8], i32 }
%struct.lua_State = type { i8, i8, i8, i8, i8, i8, i8, ptr, ptr, ptr, ptr, ptr, ptr, ptr, ptr, i32, i32, i16, i16, i32, ptr, ptr, ptr, ptr, ptr }
%struct.global_State = type { %struct.stringtable, ptr, ptr, i8, i8, ptr, ptr, ptr, i64, i64, i32, i32, i32, [40 x ptr], [40 x ptr], ptr, ptr, ptr, [256 x i64], ptr, %struct.UpVal, [11 x ptr], [11 x ptr], [21 x ptr], %struct.lua_TValue, %struct.lua_TValue, i32, ptr, i64, [4 x i64], %struct.lua_Callbacks, %struct.lua_ExecutionCallbacks, [128 x ptr], [128 x ptr], [128 x ptr], %struct.GCStats }
%struct.stringtable = type { ptr, i32, i32 }
%struct.UpVal = type { i8, i8, i8, i8, ptr, %union.anon }
%union.anon = type { %struct.anon }
%struct.anon = type { ptr, ptr, ptr }
%struct.lua_TValue = type { %union.Value, [1 x i32], i32 }
%union.Value = type { ptr }
%struct.lua_Callbacks = type { ptr, ptr, ptr, ptr, ptr, ptr, ptr, ptr, ptr, ptr }
%struct.lua_ExecutionCallbacks = type { ptr, ptr, ptr, ptr, ptr, ptr, ptr }
%struct.GCStats = type { [32 x i32], i32, i32, i64, i64, i64, double, double, double }
%struct.lua_Page = type { ptr, ptr, ptr, ptr, i32, i32, ptr, i32, i32, %union.anon.0 }
%union.anon.0 = type { double }

@_ZL16kSizeClassConfig = internal global %struct.SizeClassConfig zeroinitializer, align 4

; Function Attrs: mustprogress uwtable
define internal void @_ZL8freepageP9lua_StatePP8lua_PageS2_(ptr noundef %0, ptr noundef %1, ptr noundef %2) #5 {
  %4 = alloca ptr, align 8
  %5 = alloca ptr, align 8
  %6 = alloca ptr, align 8
  %7 = alloca ptr, align 8
  store ptr %0, ptr %4, align 8, !tbaa !21
  store ptr %1, ptr %5, align 8, !tbaa !62
  store ptr %2, ptr %6, align 8, !tbaa !54
  call void @llvm.lifetime.start.p0(i64 8, ptr %7) #10
  %8 = load ptr, ptr %4, align 8, !tbaa !21
  %9 = getelementptr inbounds nuw %struct.lua_State, ptr %8, i32 0, i32 9
  %10 = load ptr, ptr %9, align 8, !tbaa !25
  store ptr %10, ptr %7, align 8, !tbaa !36
  %11 = load ptr, ptr %5, align 8, !tbaa !62
  %12 = icmp ne ptr %11, null
  br i1 %12, label %13, label %51

13:                                               ; preds = %3
  %14 = load ptr, ptr %6, align 8, !tbaa !54
  %15 = getelementptr inbounds nuw %struct.lua_Page, ptr %14, i32 0, i32 3
  %16 = load ptr, ptr %15, align 8, !tbaa !65
  %17 = icmp ne ptr %16, null
  br i1 %17, label %18, label %26

18:                                               ; preds = %13
  %19 = load ptr, ptr %6, align 8, !tbaa !54
  %20 = getelementptr inbounds nuw %struct.lua_Page, ptr %19, i32 0, i32 2
  %21 = load ptr, ptr %20, align 8, !tbaa !64
  %22 = load ptr, ptr %6, align 8, !tbaa !54
  %23 = getelementptr inbounds nuw %struct.lua_Page, ptr %22, i32 0, i32 3
  %24 = load ptr, ptr %23, align 8, !tbaa !65
  %25 = getelementptr inbounds nuw %struct.lua_Page, ptr %24, i32 0, i32 2
  store ptr %21, ptr %25, align 8, !tbaa !64
  br label %26

26:                                               ; preds = %18, %13
  %27 = load ptr, ptr %6, align 8, !tbaa !54
  %28 = getelementptr inbounds nuw %struct.lua_Page, ptr %27, i32 0, i32 2
  %29 = load ptr, ptr %28, align 8, !tbaa !64
  %30 = icmp ne ptr %29, null
  br i1 %30, label %31, label %39

31:                                               ; preds = %26
  %32 = load ptr, ptr %6, align 8, !tbaa !54
  %33 = getelementptr inbounds nuw %struct.lua_Page, ptr %32, i32 0, i32 3
  %34 = load ptr, ptr %33, align 8, !tbaa !65
  %35 = load ptr, ptr %6, align 8, !tbaa !54
  %36 = getelementptr inbounds nuw %struct.lua_Page, ptr %35, i32 0, i32 2
  %37 = load ptr, ptr %36, align 8, !tbaa !64
  %38 = getelementptr inbounds nuw %struct.lua_Page, ptr %37, i32 0, i32 3
  store ptr %34, ptr %38, align 8, !tbaa !65
  br label %50

39:                                               ; preds = %26
  %40 = load ptr, ptr %5, align 8, !tbaa !62
  %41 = load ptr, ptr %40, align 8, !tbaa !54
  %42 = load ptr, ptr %6, align 8, !tbaa !54
  %43 = icmp eq ptr %41, %42
  br i1 %43, label %44, label %49

44:                                               ; preds = %39
  %45 = load ptr, ptr %6, align 8, !tbaa !54
  %46 = getelementptr inbounds nuw %struct.lua_Page, ptr %45, i32 0, i32 3
  %47 = load ptr, ptr %46, align 8, !tbaa !65
  %48 = load ptr, ptr %5, align 8, !tbaa !62
  store ptr %47, ptr %48, align 8, !tbaa !54
  br label %49

49:                                               ; preds = %44, %39
  br label %50

50:                                               ; preds = %49, %31
  br label %51

51:                                               ; preds = %50, %3
  %52 = load ptr, ptr %7, align 8, !tbaa !36
  %53 = getelementptr inbounds nuw %struct.global_State, ptr %52, i32 0, i32 1
  %54 = load ptr, ptr %53, align 8, !tbaa !37
  %55 = load ptr, ptr %7, align 8, !tbaa !36
  %56 = getelementptr inbounds nuw %struct.global_State, ptr %55, i32 0, i32 2
  %57 = load ptr, ptr %56, align 8, !tbaa !50
  %58 = load ptr, ptr %6, align 8, !tbaa !54
  %59 = load ptr, ptr %6, align 8, !tbaa !54
  %60 = getelementptr inbounds nuw %struct.lua_Page, ptr %59, i32 0, i32 4
  %61 = load i32, ptr %60, align 8, !tbaa !66
  %62 = sext i32 %61 to i64
  %63 = call noundef ptr %54(ptr noundef %57, ptr noundef %58, i64 noundef %62, i64 noundef 0)
  call void @llvm.lifetime.end.p0(i64 8, ptr %7) #10
  ret void
}

; Function Attrs: mustprogress uwtable
define internal void @_ZL13freeclasspageP9lua_StatePP8lua_PageS3_S2_h(ptr noundef %0, ptr noundef %1, ptr noundef %2, ptr noundef %3, i8 noundef zeroext %4) #5 {
  %6 = alloca ptr, align 8
  %7 = alloca ptr, align 8
  %8 = alloca ptr, align 8
  %9 = alloca ptr, align 8
  %10 = alloca i8, align 1
  store ptr %0, ptr %6, align 8, !tbaa !21
  store ptr %1, ptr %7, align 8, !tbaa !62
  store ptr %2, ptr %8, align 8, !tbaa !62
  store ptr %3, ptr %9, align 8, !tbaa !54
  store i8 %4, ptr %10, align 1, !tbaa !18
  %11 = load ptr, ptr %9, align 8, !tbaa !54
  %12 = getelementptr inbounds nuw %struct.lua_Page, ptr %11, i32 0, i32 1
  %13 = load ptr, ptr %12, align 8, !tbaa !60
  %14 = icmp ne ptr %13, null
  br i1 %14, label %15, label %23

15:                                               ; preds = %5
  %16 = load ptr, ptr %9, align 8, !tbaa !54
  %17 = getelementptr inbounds nuw %struct.lua_Page, ptr %16, i32 0, i32 0
  %18 = load ptr, ptr %17, align 8, !tbaa !61
  %19 = load ptr, ptr %9, align 8, !tbaa !54
  %20 = getelementptr inbounds nuw %struct.lua_Page, ptr %19, i32 0, i32 1
  %21 = load ptr, ptr %20, align 8, !tbaa !60
  %22 = getelementptr inbounds nuw %struct.lua_Page, ptr %21, i32 0, i32 0
  store ptr %18, ptr %22, align 8, !tbaa !61
  br label %23

23:                                               ; preds = %15, %5
  %24 = load ptr, ptr %9, align 8, !tbaa !54
  %25 = getelementptr inbounds nuw %struct.lua_Page, ptr %24, i32 0, i32 0
  %26 = load ptr, ptr %25, align 8, !tbaa !61
  %27 = icmp ne ptr %26, null
  br i1 %27, label %28, label %36

28:                                               ; preds = %23
  %29 = load ptr, ptr %9, align 8, !tbaa !54
  %30 = getelementptr inbounds nuw %struct.lua_Page, ptr %29, i32 0, i32 1
  %31 = load ptr, ptr %30, align 8, !tbaa !60
  %32 = load ptr, ptr %9, align 8, !tbaa !54
  %33 = getelementptr inbounds nuw %struct.lua_Page, ptr %32, i32 0, i32 0
  %34 = load ptr, ptr %33, align 8, !tbaa !61
  %35 = getelementptr inbounds nuw %struct.lua_Page, ptr %34, i32 0, i32 1
  store ptr %31, ptr %35, align 8, !tbaa !60
  br label %53

36:                                               ; preds = %23
  %37 = load ptr, ptr %7, align 8, !tbaa !62
  %38 = load i8, ptr %10, align 1, !tbaa !18
  %39 = zext i8 %38 to i64
  %40 = getelementptr inbounds nuw ptr, ptr %37, i64 %39
  %41 = load ptr, ptr %40, align 8, !tbaa !54
  %42 = load ptr, ptr %9, align 8, !tbaa !54
  %43 = icmp eq ptr %41, %42
  br i1 %43, label %44, label %52

44:                                               ; preds = %36
  %45 = load ptr, ptr %9, align 8, !tbaa !54
  %46 = getelementptr inbounds nuw %struct.lua_Page, ptr %45, i32 0, i32 1
  %47 = load ptr, ptr %46, align 8, !tbaa !60
  %48 = load ptr, ptr %7, align 8, !tbaa !62
  %49 = load i8, ptr %10, align 1, !tbaa !18
  %50 = zext i8 %49 to i64
  %51 = getelementptr inbounds nuw ptr, ptr %48, i64 %50
  store ptr %47, ptr %51, align 8, !tbaa !54
  br label %52

52:                                               ; preds = %44, %36
  br label %53

53:                                               ; preds = %52, %28
  %54 = load ptr, ptr %6, align 8, !tbaa !21
  %55 = load ptr, ptr %8, align 8, !tbaa !62
  %56 = load ptr, ptr %9, align 8, !tbaa !54
  call void @_ZL8freepageP9lua_StatePP8lua_PageS2_(ptr noundef %54, ptr noundef %55, ptr noundef %56)
  ret void
}

; Function Attrs: mustprogress uwtable
define internal void @_ZL9freeblockP9lua_StateiPv(ptr noundef %0, i32 noundef %1, ptr noundef %2) #5 {
  %4 = alloca ptr, align 8
  %5 = alloca i32, align 4
  %6 = alloca ptr, align 8
  %7 = alloca ptr, align 8
  %8 = alloca ptr, align 8
  store ptr %0, ptr %4, align 8, !tbaa !21
  store i32 %1, ptr %5, align 4, !tbaa !12
  store ptr %2, ptr %6, align 8, !tbaa !51
  call void @llvm.lifetime.start.p0(i64 8, ptr %7) #10
  %9 = load ptr, ptr %4, align 8, !tbaa !21
  %10 = getelementptr inbounds nuw %struct.lua_State, ptr %9, i32 0, i32 9
  %11 = load ptr, ptr %10, align 8, !tbaa !25
  store ptr %11, ptr %7, align 8, !tbaa !36
  %12 = load ptr, ptr %6, align 8, !tbaa !51
  %13 = getelementptr inbounds i8, ptr %12, i64 -8
  store ptr %13, ptr %6, align 8, !tbaa !51
  call void @llvm.lifetime.start.p0(i64 8, ptr %8) #10
  %14 = load ptr, ptr %6, align 8, !tbaa !51
  %15 = load ptr, ptr %14, align 8, !tbaa !51
  store ptr %15, ptr %8, align 8, !tbaa !54
  %16 = load ptr, ptr %8, align 8, !tbaa !54
  %17 = getelementptr inbounds nuw %struct.lua_Page, ptr %16, i32 0, i32 6
  %18 = load ptr, ptr %17, align 8, !tbaa !59
  %19 = icmp ne ptr %18, null
  br i1 %19, label %51, label %20

20:                                               ; preds = %3
  %21 = load ptr, ptr %8, align 8, !tbaa !54
  %22 = getelementptr inbounds nuw %struct.lua_Page, ptr %21, i32 0, i32 7
  %23 = load i32, ptr %22, align 8, !tbaa !55
  %24 = icmp slt i32 %23, 0
  br i1 %24, label %25, label %51

25:                                               ; preds = %20
  %26 = load ptr, ptr %7, align 8, !tbaa !36
  %27 = getelementptr inbounds nuw %struct.global_State, ptr %26, i32 0, i32 13
  %28 = load i32, ptr %5, align 4, !tbaa !12
  %29 = sext i32 %28 to i64
  %30 = getelementptr inbounds [40 x ptr], ptr %27, i64 0, i64 %29
  %31 = load ptr, ptr %30, align 8, !tbaa !54
  %32 = load ptr, ptr %8, align 8, !tbaa !54
  %33 = getelementptr inbounds nuw %struct.lua_Page, ptr %32, i32 0, i32 1
  store ptr %31, ptr %33, align 8, !tbaa !60
  %34 = load ptr, ptr %8, align 8, !tbaa !54
  %35 = getelementptr inbounds nuw %struct.lua_Page, ptr %34, i32 0, i32 1
  %36 = load ptr, ptr %35, align 8, !tbaa !60
  %37 = icmp ne ptr %36, null
  br i1 %37, label %38, label %44

38:                                               ; preds = %25
  %39 = load ptr, ptr %8, align 8, !tbaa !54
  %40 = load ptr, ptr %8, align 8, !tbaa !54
  %41 = getelementptr inbounds nuw %struct.lua_Page, ptr %40, i32 0, i32 1
  %42 = load ptr, ptr %41, align 8, !tbaa !60
  %43 = getelementptr inbounds nuw %struct.lua_Page, ptr %42, i32 0, i32 0
  store ptr %39, ptr %43, align 8, !tbaa !61
  br label %44

44:                                               ; preds = %38, %25
  %45 = load ptr, ptr %8, align 8, !tbaa !54
  %46 = load ptr, ptr %7, align 8, !tbaa !36
  %47 = getelementptr inbounds nuw %struct.global_State, ptr %46, i32 0, i32 13
  %48 = load i32, ptr %5, align 4, !tbaa !12
  %49 = sext i32 %48 to i64
  %50 = getelementptr inbounds [40 x ptr], ptr %47, i64 0, i64 %49
  store ptr %45, ptr %50, align 8, !tbaa !54
  br label %51

51:                                               ; preds = %44, %20, %3
  %52 = load ptr, ptr %8, align 8, !tbaa !54
  %53 = getelementptr inbounds nuw %struct.lua_Page, ptr %52, i32 0, i32 6
  %54 = load ptr, ptr %53, align 8, !tbaa !59
  %55 = load ptr, ptr %6, align 8, !tbaa !51
  store ptr %54, ptr %55, align 8, !tbaa !51
  %56 = load ptr, ptr %6, align 8, !tbaa !51
  %57 = load ptr, ptr %8, align 8, !tbaa !54
  %58 = getelementptr inbounds nuw %struct.lua_Page, ptr %57, i32 0, i32 6
  store ptr %56, ptr %58, align 8, !tbaa !59
  %59 = load ptr, ptr %8, align 8, !tbaa !54
  %60 = getelementptr inbounds nuw %struct.lua_Page, ptr %59, i32 0, i32 8
  %61 = load i32, ptr %60, align 4, !tbaa !58
  %62 = add nsw i32 %61, -1
  store i32 %62, ptr %60, align 4, !tbaa !58
  %63 = load ptr, ptr %8, align 8, !tbaa !54
  %64 = getelementptr inbounds nuw %struct.lua_Page, ptr %63, i32 0, i32 8
  %65 = load i32, ptr %64, align 4, !tbaa !58
  %66 = icmp eq i32 %65, 0
  br i1 %66, label %67, label %75

67:                                               ; preds = %51
  %68 = load ptr, ptr %4, align 8, !tbaa !21
  %69 = load ptr, ptr %7, align 8, !tbaa !36
  %70 = getelementptr inbounds nuw %struct.global_State, ptr %69, i32 0, i32 13
  %71 = getelementptr inbounds [40 x ptr], ptr %70, i64 0, i64 0
  %72 = load ptr, ptr %8, align 8, !tbaa !54
  %73 = load i32, ptr %5, align 4, !tbaa !12
  %74 = trunc i32 %73 to i8
  call void @_ZL13freeclasspageP9lua_StatePP8lua_PageS3_S2_h(ptr noundef %68, ptr noundef %71, ptr noundef null, ptr noundef %72, i8 noundef zeroext %74)
  br label %75

75:                                               ; preds = %67, %51
  call void @llvm.lifetime.end.p0(i64 8, ptr %8) #10
  call void @llvm.lifetime.end.p0(i64 8, ptr %7) #10
  ret void
}

; Function Attrs: mustprogress uwtable
define hidden void @_Z10luaM_free_P9lua_StatePvmh(ptr noundef %0, ptr noundef %1, i64 noundef %2, i8 noundef zeroext %3) #5 {
  %5 = alloca ptr, align 8
  %6 = alloca ptr, align 8
  %7 = alloca i64, align 8
  %8 = alloca i8, align 1
  %9 = alloca ptr, align 8
  %10 = alloca i32, align 4
  store ptr %0, ptr %5, align 8, !tbaa !21
  store ptr %1, ptr %6, align 8, !tbaa !51
  store i64 %2, ptr %7, align 8, !tbaa !23
  store i8 %3, ptr %8, align 1, !tbaa !18
  call void @llvm.lifetime.start.p0(i64 8, ptr %9) #10
  %11 = load ptr, ptr %5, align 8, !tbaa !21
  %12 = getelementptr inbounds nuw %struct.lua_State, ptr %11, i32 0, i32 9
  %13 = load ptr, ptr %12, align 8, !tbaa !25
  store ptr %13, ptr %9, align 8, !tbaa !36
  call void @llvm.lifetime.start.p0(i64 4, ptr %10) #10
  %14 = load i64, ptr %7, align 8, !tbaa !23
  %15 = sub i64 %14, 1
  %16 = icmp ult i64 %15, 1024
  br i1 %16, label %17, label %22

17:                                               ; preds = %4
  %18 = load i64, ptr %7, align 8, !tbaa !23
  %19 = getelementptr inbounds nuw [1025 x i8], ptr getelementptr inbounds nuw (%struct.SizeClassConfig, ptr @_ZL16kSizeClassConfig, i32 0, i32 1), i64 0, i64 %18
  %20 = load i8, ptr %19, align 1, !tbaa !18
  %21 = sext i8 %20 to i32
  br label %23

22:                                               ; preds = %4
  br label %23

23:                                               ; preds = %22, %17
  %24 = phi i32 [ %21, %17 ], [ -1, %22 ]
  store i32 %24, ptr %10, align 4, !tbaa !12
  %25 = load i32, ptr %10, align 4, !tbaa !12
  %26 = icmp sge i32 %25, 0
  br i1 %26, label %27, label %31

27:                                               ; preds = %23
  %28 = load ptr, ptr %5, align 8, !tbaa !21
  %29 = load i32, ptr %10, align 4, !tbaa !12
  %30 = load ptr, ptr %6, align 8, !tbaa !51
  call void @_ZL9freeblockP9lua_StateiPv(ptr noundef %28, i32 noundef %29, ptr noundef %30)
  br label %41

31:                                               ; preds = %23
  %32 = load ptr, ptr %9, align 8, !tbaa !36
  %33 = getelementptr inbounds nuw %struct.global_State, ptr %32, i32 0, i32 1
  %34 = load ptr, ptr %33, align 8, !tbaa !37
  %35 = load ptr, ptr %9, align 8, !tbaa !36
  %36 = getelementptr inbounds nuw %struct.global_State, ptr %35, i32 0, i32 2
  %37 = load ptr, ptr %36, align 8, !tbaa !50
  %38 = load ptr, ptr %6, align 8, !tbaa !51
  %39 = load i64, ptr %7, align 8, !tbaa !23
  %40 = call noundef ptr %34(ptr noundef %37, ptr noundef %38, i64 noundef %39, i64 noundef 0)
  br label %41

41:                                               ; preds = %31, %27
  %42 = load i64, ptr %7, align 8, !tbaa !23
  %43 = load ptr, ptr %9, align 8, !tbaa !36
  %44 = getelementptr inbounds nuw %struct.global_State, ptr %43, i32 0, i32 9
  %45 = load i64, ptr %44, align 8, !tbaa !52
  %46 = sub i64 %45, %42
  store i64 %46, ptr %44, align 8, !tbaa !52
  %47 = load i64, ptr %7, align 8, !tbaa !23
  %48 = load ptr, ptr %9, align 8, !tbaa !36
  %49 = getelementptr inbounds nuw %struct.global_State, ptr %48, i32 0, i32 18
  %50 = load i8, ptr %8, align 1, !tbaa !18
  %51 = zext i8 %50 to i64
  %52 = getelementptr inbounds nuw [256 x i64], ptr %49, i64 0, i64 %51
  %53 = load i64, ptr %52, align 8, !tbaa !23
  %54 = sub i64 %53, %47
  store i64 %54, ptr %52, align 8, !tbaa !23
  call void @llvm.lifetime.end.p0(i64 4, ptr %10) #10
  call void @llvm.lifetime.end.p0(i64 8, ptr %9) #10
  ret void
}