; Function Attrs: mustprogress uwtable
define hidden void @_Z10luaM_free_P9lua_StatePvmh(ptr noundef readonly captures(none) %0, ptr noundef %1, i64 noundef %2, i8 noundef zeroext %3) local_unnamed_addr #3 {
  %5 = getelementptr inbounds nuw i8, ptr %0, i64 24
  %6 = load ptr, ptr %5, align 8, !tbaa !4
  %7 = add i64 %2, -1
  %8 = icmp ult i64 %7, 1024
  br i1 %8, label %9, label %.thread

9:                                                ; preds = %4
  %10 = getelementptr inbounds nuw [1025 x i8], ptr getelementptr inbounds nuw (i8, ptr @_ZL16kSizeClassConfig, i64 160), i64 0, i64 %2
  %11 = load i8, ptr %10, align 1, !tbaa !19
  %12 = sext i8 %11 to i32
  %13 = icmp sgt i8 %11, -1
  br i1 %13, label %14, label %.thread

14:                                               ; preds = %9
  %15 = getelementptr inbounds i8, ptr %1, i64 -8
  %16 = load ptr, ptr %15, align 8, !tbaa !26
  %17 = getelementptr inbounds nuw i8, ptr %16, i64 40
  %18 = load ptr, ptr %17, align 8, !tbaa !27
  %.not.i = icmp eq ptr %18, null
  br i1 %.not.i, label %19, label %31

19:                                               ; preds = %14
  %20 = getelementptr inbounds nuw i8, ptr %16, i64 48
  %21 = load i32, ptr %20, align 8, !tbaa !22
  %22 = icmp slt i32 %21, 0
  br i1 %22, label %23, label %31

23:                                               ; preds = %19
  %24 = getelementptr inbounds nuw i8, ptr %6, i64 96
  %25 = zext nneg i32 %12 to i64
  %26 = getelementptr inbounds nuw [40 x ptr], ptr %24, i64 0, i64 %25
  %27 = load ptr, ptr %26, align 8, !tbaa !20
  %28 = getelementptr inbounds nuw i8, ptr %16, i64 8
  store ptr %27, ptr %28, align 8, !tbaa !28
  %.not23.i = icmp eq ptr %27, null
  br i1 %.not23.i, label %30, label %29

29:                                               ; preds = %23
  store ptr %16, ptr %27, align 8, !tbaa !29
  br label %30

30:                                               ; preds = %29, %23
  store ptr %16, ptr %26, align 8, !tbaa !20
  br label %31

31:                                               ; preds = %30, %19, %14
  store ptr %18, ptr %15, align 8, !tbaa !26
  store ptr %15, ptr %17, align 8, !tbaa !27
  %32 = getelementptr inbounds nuw i8, ptr %16, i64 52
  %33 = load i32, ptr %32, align 4, !tbaa !25
  %34 = add nsw i32 %33, -1
  store i32 %34, ptr %32, align 4, !tbaa !25
  %35 = icmp eq i32 %34, 0
  br i1 %35, label %36, label %_ZL9freeblockP9lua_StateiPv.exit

36:                                               ; preds = %31
  %37 = getelementptr inbounds nuw i8, ptr %6, i64 96
  %38 = zext nneg i32 %12 to i64
  %39 = getelementptr inbounds nuw i8, ptr %16, i64 8
  %40 = load ptr, ptr %39, align 8, !tbaa !28
  %.not.i.i = icmp eq ptr %40, null
  %.pre.i.i = load ptr, ptr %16, align 8, !tbaa !29
  br i1 %.not.i.i, label %42, label %41

41:                                               ; preds = %36
  store ptr %.pre.i.i, ptr %40, align 8, !tbaa !29
  br label %42

42:                                               ; preds = %41, %36
  %.not15.i.i = icmp eq ptr %.pre.i.i, null
  br i1 %.not15.i.i, label %45, label %43

43:                                               ; preds = %42
  %44 = getelementptr inbounds nuw i8, ptr %.pre.i.i, i64 8
  store ptr %40, ptr %44, align 8, !tbaa !28
  br label %_ZL13freeclasspageP9lua_StatePP8lua_PageS3_S2_h.exit.i

45:                                               ; preds = %42
  %46 = getelementptr inbounds nuw ptr, ptr %37, i64 %38
  %47 = load ptr, ptr %46, align 8, !tbaa !20
  %48 = icmp eq ptr %47, %16
  br i1 %48, label %49, label %_ZL13freeclasspageP9lua_StatePP8lua_PageS3_S2_h.exit.i

49:                                               ; preds = %45
  store ptr %40, ptr %46, align 8, !tbaa !20
  br label %_ZL13freeclasspageP9lua_StatePP8lua_PageS3_S2_h.exit.i

_ZL13freeclasspageP9lua_StatePP8lua_PageS3_S2_h.exit.i: ; preds = %49, %45, %43
  %.val.i.i = load ptr, ptr %5, align 8, !tbaa !4
  %50 = getelementptr inbounds nuw i8, ptr %.val.i.i, i64 16
  %51 = load ptr, ptr %50, align 8, !tbaa !30
  %52 = getelementptr inbounds nuw i8, ptr %.val.i.i, i64 24
  %53 = load ptr, ptr %52, align 8, !tbaa !44
  %54 = getelementptr inbounds nuw i8, ptr %16, i64 32
  %55 = load i32, ptr %54, align 8, !tbaa !49
  %56 = sext i32 %55 to i64
  %57 = tail call noundef ptr %51(ptr noundef %53, ptr noundef nonnull %16, i64 noundef %56, i64 noundef 0)
  br label %_ZL9freeblockP9lua_StateiPv.exit

.thread:                                          ; preds = %4, %9
  %58 = getelementptr inbounds nuw i8, ptr %6, i64 16
  %59 = load ptr, ptr %58, align 8, !tbaa !30
  %60 = getelementptr inbounds nuw i8, ptr %6, i64 24
  %61 = load ptr, ptr %60, align 8, !tbaa !44
  %62 = tail call noundef ptr %59(ptr noundef %61, ptr noundef %1, i64 noundef %2, i64 noundef 0)
  br label %_ZL9freeblockP9lua_StateiPv.exit

_ZL9freeblockP9lua_StateiPv.exit:                 ; preds = %_ZL13freeclasspageP9lua_StatePP8lua_PageS3_S2_h.exit.i, %31, %.thread
  %63 = getelementptr inbounds nuw i8, ptr %6, i64 72
  %64 = load i64, ptr %63, align 8, !tbaa !45
  %65 = sub i64 %64, %2
  store i64 %65, ptr %63, align 8, !tbaa !45
  %66 = getelementptr inbounds nuw i8, ptr %6, i64 760
  %67 = zext i8 %3 to i64
  %68 = getelementptr inbounds nuw [256 x i64], ptr %66, i64 0, i64 %67
  %69 = load i64, ptr %68, align 8, !tbaa !46
  %70 = sub i64 %69, %2
  store i64 %70, ptr %68, align 8, !tbaa !46
  ret void
}